target datalayout = "e-m:e-p270:32:32-p271:32:32-p272:64:64-i64:64-i128:128-f80:128-n8:16:32:64-S128"
target triple = "x86_64-pc-linux-gnu"

@.str.4 = private unnamed_addr constant [2 x i8] c"\0A\00", align 1
@.str.5 = private unnamed_addr constant [39 x i8] c"    opt_lut_ins [options] [selection]\0A\00", align 1
@.str.6 = private unnamed_addr constant [78 x i8] c"This pass removes unused inputs from LUT cells (that is, inputs that can not\0A\00", align 1
@.str.7 = private unnamed_addr constant [78 x i8] c"influence the output signal given this LUT's value).  While such LUTs cannot\0A\00", align 1
@.str.8 = private unnamed_addr constant [70 x i8] c"be directly emitted by ABC, they can be a result of various post-ABC\0A\00", align 1
@.str.9 = private unnamed_addr constant [75 x i8] c"transformations, such as mapping wide LUTs (not all sub-LUTs will use the\0A\00", align 1
@.str.10 = private unnamed_addr constant [61 x i8] c"full set of inputs) or optimizations such as xilinx_dffopt.\0A\00", align 1
@.str.11 = private unnamed_addr constant [24 x i8] c"    -tech <technology>\0A\00", align 1
@.str.12 = private unnamed_addr constant [70 x i8] c"        Instead of generic $lut cells, operate on LUT cells specific\0A\00", align 1
@.str.13 = private unnamed_addr constant [77 x i8] c"        to the given technology.  Valid values are: xilinx, lattice, gowin.\0A\00", align 1

; Function Attrs: mustprogress uwtable
define internal void @_ZN12_GLOBAL__N_113OptLutInsPass4helpEv(ptr noundef nonnull align 8 dereferenceable(104) %0) unnamed_addr #4 align 2 {
  %2 = alloca ptr, align 8
  store ptr %0, ptr %2, align 8, !tbaa !6
  call void (ptr, ...) @_ZN5Yosys3logEPKcz(ptr noundef @.str.4)
  call void (ptr, ...) @_ZN5Yosys3logEPKcz(ptr noundef @.str.5)
  call void (ptr, ...) @_ZN5Yosys3logEPKcz(ptr noundef @.str.4)
  call void (ptr, ...) @_ZN5Yosys3logEPKcz(ptr noundef @.str.6)
  call void (ptr, ...) @_ZN5Yosys3logEPKcz(ptr noundef @.str.7)
  call void (ptr, ...) @_ZN5Yosys3logEPKcz(ptr noundef @.str.8)
  call void (ptr, ...) @_ZN5Yosys3logEPKcz(ptr noundef @.str.9)
  call void (ptr, ...) @_ZN5Yosys3logEPKcz(ptr noundef @.str.10)
  call void (ptr, ...) @_ZN5Yosys3logEPKcz(ptr noundef @.str.4)
  call void (ptr, ...) @_ZN5Yosys3logEPKcz(ptr noundef @.str.11)
  call void (ptr, ...) @_ZN5Yosys3logEPKcz(ptr noundef @.str.12)
  call void (ptr, ...) @_ZN5Yosys3logEPKcz(ptr noundef @.str.13)
  call void (ptr, ...) @_ZN5Yosys3logEPKcz(ptr noundef @.str.4)
  ret void
}